; Function Attrs: mustprogress uwtable
define hidden noundef nonnull align 8 dereferenceable(8) ptr @_ZNK2dt6solver7displayERSo(ptr noundef nonnull readonly align 8 captures(none) dereferenceable(472) %0, ptr noundef nonnull returned align 8 dereferenceable(8) %1) unnamed_addr #3 align 2 {
  %3 = getelementptr inbounds nuw i8, ptr %0, i64 88
  %4 = load ptr, ptr %3, align 8, !tbaa !432
  %5 = icmp eq ptr %4, null
  br i1 %5, label %._crit_edge, label %_ZNK3euf13th_euf_solver12get_num_varsEv.exit

_ZNK3euf13th_euf_solver12get_num_varsEv.exit:     ; preds = %2
  %6 = getelementptr inbounds i8, ptr %4, i64 -4
  %7 = load i32, ptr %6, align 4, !tbaa !387
  %.not = icmp eq i32 %7, 0
  br i1 %.not, label %._crit_edge, label %.lr.ph.preheader

.lr.ph.preheader:                                 ; preds = %_ZNK3euf13th_euf_solver12get_num_varsEv.exit
  %8 = tail call noundef nonnull align 8 dereferenceable(8) ptr @_ZSt16__ostream_insertIcSt11char_traitsIcEERSt13basic_ostreamIT_T0_ES6_PKS3_l(ptr noundef nonnull align 8 dereferenceable(8) %1, ptr noundef nonnull @.str.9, i64 noundef 17)
  br label %.lr.ph

._crit_edge:                                      ; preds = %.lr.ph, %2, %_ZNK3euf13th_euf_solver12get_num_varsEv.exit
  ret ptr %1

.lr.ph:                                           ; preds = %.lr.ph.preheader, %.lr.ph
  %.011 = phi i32 [ %9, %.lr.ph ], [ 0, %.lr.ph.preheader ]
  tail call void @_ZNK2dt6solver11display_varERSoi(ptr noundef nonnull align 8 dereferenceable(472) %0, ptr noundef nonnull align 8 dereferenceable(8) %1, i32 noundef %.011)
  %9 = add nuw i32 %.011, 1
  %exitcond.not = icmp eq i32 %9, %7
  br i1 %exitcond.not, label %._crit_edge, label %.lr.ph, !llvm.loop !589
}